
Allocating common symbols
Common symbol       size              file

mousedata0          0x4               mouse.o
keyfifo             0x4               keyboard.o
taskctl             0x4               mtask.o
timerctl            0x271c            timer.o
mousefifo           0x4               mouse.o
task_timer          0x4               mtask.o
keydata0            0x4               keyboard.o

Discarded input sections

 .note.gnu.property
                0x0000000000000000       0x1c bootpack.o
 .eh_frame      0x0000000000000000       0x74 bootpack.o
 .note.gnu.property
                0x0000000000000000       0x1c hankaku.o
 .note.gnu.property
                0x0000000000000000       0x1c fifo.o
 .eh_frame      0x0000000000000000       0x98 fifo.o
 .note.gnu.property
                0x0000000000000000       0x1c int.o
 .eh_frame      0x0000000000000000       0x38 int.o
 .note.gnu.property
                0x0000000000000000       0x1c keyboard.o
 .eh_frame      0x0000000000000000       0x78 keyboard.o
 .note.gnu.property
                0x0000000000000000       0x1c mouse.o
 .eh_frame      0x0000000000000000       0x78 mouse.o
 .note.gnu.property
                0x0000000000000000       0x1c memory.o
 .eh_frame      0x0000000000000000      0x104 memory.o
 .note.gnu.property
                0x0000000000000000       0x1c mysprintf.o
 .eh_frame      0x0000000000000000       0xdc mysprintf.o
 .note.gnu.property
                0x0000000000000000       0x1c graphic.o
 .eh_frame      0x0000000000000000      0x124 graphic.o
 .note.gnu.property
                0x0000000000000000       0x1c dsctbl.o
 .eh_frame      0x0000000000000000       0x78 dsctbl.o
 .note.gnu.property
                0x0000000000000000       0x1c sheet.o
 .eh_frame      0x0000000000000000      0x15c sheet.o
 .note.gnu.property
                0x0000000000000000       0x1c timer.o
 .eh_frame      0x0000000000000000      0x118 timer.o
 .note.gnu.property
                0x0000000000000000       0x1c mtask.o
 .eh_frame      0x0000000000000000      0x154 mtask.o
 .note.gnu.property
                0x0000000000000000       0x1c console.o
 .eh_frame      0x0000000000000000      0x208 console.o
 .note.gnu.property
                0x0000000000000000       0x1c window.o
 .eh_frame      0x0000000000000000       0xd0 window.o
 .note.gnu.property
                0x0000000000000000       0x1c file.o
 .eh_frame      0x0000000000000000       0x78 file.o

Memory Configuration

Name             Origin             Length             Attributes
*default*        0x0000000000000000 0xffffffffffffffff

Linker script and memory map


.head           0x0000000000000000       0x24
                0x0000000000000000        0x4 LONG 0x10000
                0x0000000000000004        0x4 LONG 0x69726148
                0x0000000000000008        0x4 LONG 0x0
                0x000000000000000c        0x4 LONG 0x310000
                0x0000000000000010        0x4 LONG 0x1439 SIZEOF (.data)
                0x0000000000000014        0x4 LONG 0x579f LOADADDR (.data)
                0x0000000000000018        0x4 LONG 0xe9000000
                0x000000000000001c        0x4 LONG 0x10 (HariMain - 0x20)
                0x0000000000000020        0x4 LONG 0x0

.text           0x0000000000000030     0x576f
 *(.text)
 .text          0x0000000000000030      0xcb8 bootpack.o
                0x0000000000000030                HariMain
                0x0000000000000c64                keywin_off
                0x0000000000000ca6                keywin_on
 *fill*         0x0000000000000ce8        0x8 
 .text          0x0000000000000cf0      0x1de nasmfunc.o
                0x0000000000000cf0                io_hlt
                0x0000000000000cf2                io_cli
                0x0000000000000cf4                io_sti
                0x0000000000000cf6                io_stihlt
                0x0000000000000cf9                io_in8
                0x0000000000000d04                io_in16
                0x0000000000000d10                io_in32
                0x0000000000000d16                io_out8
                0x0000000000000d20                io_out16
                0x0000000000000d2b                io_out32
                0x0000000000000d35                io_load_eflags
                0x0000000000000d38                io_store_eflags
                0x0000000000000d3f                load_gdtr
                0x0000000000000d4f                load_idtr
                0x0000000000000d5f                load_cr0
                0x0000000000000d63                store_cr0
                0x0000000000000d6b                asm_inthandler20
                0x0000000000000db8                asm_inthandler21
                0x0000000000000dcf                asm_inthandler2c
                0x0000000000000de6                memtest_sub
                0x0000000000000e28                load_tr
                0x0000000000000e2e                farjmp
                0x0000000000000e33                farcall
                0x0000000000000e38                asm_hrb_api
                0x0000000000000e55                start_app
                0x0000000000000e83                asm_inthandler0c
                0x0000000000000ea3                asm_inthandler0d
                0x0000000000000ec3                asm_end_app
 .text          0x0000000000000ece        0x0 hankaku.o
 .text          0x0000000000000ece      0x188 fifo.o
                0x0000000000000ece                fifo32_init
                0x0000000000000f19                fifo32_put
                0x0000000000000fca                fifo32_get
                0x000000000000103d                fifo32_status
 .text          0x0000000000001056       0xdf int.o
                0x0000000000001056                init_pic
 .text          0x0000000000001135       0xb2 keyboard.o
                0x0000000000001135                inthandler21
                0x000000000000117e                wait_KBC_sendready
                0x00000000000011a2                init_keyboard
 .text          0x00000000000011e7      0x1f0 mouse.o
                0x00000000000011e7                inthandler2c
                0x0000000000001242                enable_mouse
                0x0000000000001294                mouse_decode
 .text          0x00000000000013d7      0x4cd memory.o
                0x00000000000013d7                memtest
                0x0000000000001492                memman_init
                0x00000000000014c3                memman_total
                0x0000000000001500                memman_alloc
                0x00000000000015ed                memman_free
                0x0000000000001841                memman_alloc_4k
                0x0000000000001871                memman_free_4k
 .text          0x00000000000018a4      0x2c2 mysprintf.o
                0x00000000000018a4                dec2asc
                0x000000000000193c                hex2asc
                0x00000000000019ce                sprintf
                0x0000000000001a74                strcmp
                0x0000000000001ad9                strncmp
                0x0000000000001b3b                rand
 .text          0x0000000000001b66      0x71f graphic.o
                0x0000000000001b66                init_palette
                0x0000000000001cb8                set_palette
                0x0000000000001d68                boxfill8
                0x0000000000001dbe                init_screen8
                0x0000000000001fdf                putfont8
                0x00000000000020e5                putfonts8_asc
                0x0000000000002138                init_mouse_cursor8
                0x0000000000002212                putblock8_8
 .text          0x0000000000002285      0x25b dsctbl.o
                0x0000000000002285                init_gdtidt
                0x0000000000002418                set_segmdesc
                0x0000000000002497                set_gatedesc
 .text          0x00000000000024e0      0xa53 sheet.o
                0x00000000000024e0                shtctl_init
                0x00000000000025c7                sheet_alloc
                0x000000000000264c                sheet_setbuf
                0x0000000000002679                sheet_refreshmap
                0x0000000000002831                sheet_refreshsub
                0x0000000000002a01                sheet_updown
                0x0000000000002d7c                sheet_refresh
                0x0000000000002df1                sheet_slide
                0x0000000000002f08                sheet_free
 .text          0x0000000000002f33      0x3e9 timer.o
                0x0000000000002f33                init_pit
                0x0000000000002fd9                timer_alloc
                0x000000000000305a                timer_free
                0x000000000000306b                timer_init
                0x0000000000003087                timer_settime
                0x0000000000003137                inthandler20
                0x00000000000031e8                timer_cancel
                0x0000000000003289                timer_cancelall
 .text          0x000000000000331c      0x662 mtask.o
                0x000000000000331c                task_now
                0x0000000000003350                task_add
                0x000000000000339d                task_remove
                0x000000000000345e                task_switchsub
                0x00000000000034ae                task_idle
                0x00000000000034bf                task_init
                0x00000000000036c8                task_alloc
                0x00000000000037e6                task_run
                0x0000000000003857                task_sleep
                0x00000000000038ab                task_switch
 .text          0x000000000000397e     0x154b console.o
                0x000000000000397e                console_task
                0x0000000000003c8f                cons_putchar
                0x0000000000003d9b                cons_newline
                0x0000000000003ea7                cons_putstr0
                0x0000000000003ede                cons_putstr1
                0x0000000000003f1f                cons_runcmd
                0x000000000000400f                cmd_mem
                0x000000000000406c                cmd_cls
                0x00000000000040ee                cmd_dir
                0x0000000000004226                cmd_type
                0x00000000000042f5                cmd_app
                0x0000000000004666                hrb_api
                0x0000000000004cc4                inthandler0c
                0x0000000000004d2c                inthandler0d
                0x0000000000004d94                hrb_api_linewin
 .text          0x0000000000004ec9      0x60d window.o
                0x0000000000004ec9                make_window8
                0x000000000000503f                make_wtitle8
                0x000000000000513b                putfonts8_asc_sht
                0x00000000000051de                make_textbox8
                0x00000000000053e1                change_wtitle8
 .text          0x00000000000054d6      0x2c9 file.o
                0x00000000000054d6                file_readfat
                0x000000000000558a                file_loadfile
                0x0000000000005636                file_search

.data           0x0000000000310000     0x1439 load address 0x000000000000579f
 *(.data)
 .data          0x0000000000310000      0x100 bootpack.o
 .data          0x0000000000310100        0x0 nasmfunc.o
 .data          0x0000000000310100     0x1000 hankaku.o
                0x0000000000310100                hankaku
 .data          0x0000000000311100        0x0 fifo.o
 .data          0x0000000000311100        0x0 int.o
 .data          0x0000000000311100        0x0 keyboard.o
 .data          0x0000000000311100        0x0 mouse.o
 .data          0x0000000000311100        0x0 memory.o
 .data          0x0000000000311100        0x4 mysprintf.o
 *fill*         0x0000000000311104       0x1c 
 .data          0x0000000000311120      0x140 graphic.o
 .data          0x0000000000311260        0x0 dsctbl.o
 .data          0x0000000000311260        0x0 sheet.o
 .data          0x0000000000311260        0x0 timer.o
 .data          0x0000000000311260        0x0 mtask.o
 .data          0x0000000000311260        0x0 console.o
 .data          0x0000000000311260       0xe0 window.o
 .data          0x0000000000311340        0x0 file.o
 *(.rodata*)
 .rodata        0x0000000000311340       0x28 bootpack.o
 .rodata        0x0000000000311368       0xd1 console.o
 *(.bss)
 .bss           0x0000000000311439        0x0 bootpack.o
 .bss           0x0000000000311439        0x0 hankaku.o
 .bss           0x0000000000311439        0x0 fifo.o
 .bss           0x0000000000311439        0x0 int.o
 .bss           0x0000000000311439        0x0 keyboard.o
 .bss           0x0000000000311439        0x0 mouse.o
 .bss           0x0000000000311439        0x0 memory.o
 .bss           0x0000000000311439        0x0 mysprintf.o
 .bss           0x0000000000311439        0x0 graphic.o
 .bss           0x0000000000311439        0x0 dsctbl.o
 .bss           0x0000000000311439        0x0 sheet.o
 .bss           0x0000000000311439        0x0 timer.o
 .bss           0x0000000000311439        0x0 mtask.o
 .bss           0x0000000000311439        0x0 console.o
 .bss           0x0000000000311439        0x0 window.o
 .bss           0x0000000000311439        0x0 file.o

/DISCARD/
 *(.eh_frame)
 *(.note.gnu.property)
LOAD bootpack.o
LOAD nasmfunc.o
LOAD hankaku.o
LOAD fifo.o
LOAD int.o
LOAD keyboard.o
LOAD mouse.o
LOAD memory.o
LOAD mysprintf.o
LOAD graphic.o
LOAD dsctbl.o
LOAD sheet.o
LOAD timer.o
LOAD mtask.o
LOAD console.o
LOAD window.o
LOAD file.o
OUTPUT(bootpack.hrb binary)

.debug_info     0x0000000000000000     0x77d1
 .debug_info    0x0000000000000000      0xbe3 bootpack.o
 .debug_info    0x0000000000000be3       0x4f hankaku.o
 .debug_info    0x0000000000000c32      0x5d1 fifo.o
 .debug_info    0x0000000000001203      0x79d int.o
 .debug_info    0x00000000000019a0      0x582 keyboard.o
 .debug_info    0x0000000000001f22      0x619 mouse.o
 .debug_info    0x000000000000253b      0x79e memory.o
 .debug_info    0x0000000000002cd9      0x25f mysprintf.o
 .debug_info    0x0000000000002f38      0x8d4 graphic.o
 .debug_info    0x000000000000380c      0x67d dsctbl.o
 .debug_info    0x0000000000003e89      0xa6c sheet.o
 .debug_info    0x00000000000048f5      0x6e3 timer.o
 .debug_info    0x0000000000004fd8      0x8d7 mtask.o
 .debug_info    0x00000000000058af     0x1082 console.o
 .debug_info    0x0000000000006931      0x7ba window.o
 .debug_info    0x00000000000070eb      0x6e6 file.o

.debug_abbrev   0x0000000000000000     0x1517
 .debug_abbrev  0x0000000000000000      0x160 bootpack.o
 .debug_abbrev  0x0000000000000160       0x40 hankaku.o
 .debug_abbrev  0x00000000000001a0      0x13f fifo.o
 .debug_abbrev  0x00000000000002df      0x108 int.o
 .debug_abbrev  0x00000000000003e7      0x14c keyboard.o
 .debug_abbrev  0x0000000000000533      0x150 mouse.o
 .debug_abbrev  0x0000000000000683      0x16e memory.o
 .debug_abbrev  0x00000000000007f1      0x11f mysprintf.o
 .debug_abbrev  0x0000000000000910      0x139 graphic.o
 .debug_abbrev  0x0000000000000a49      0x11f dsctbl.o
 .debug_abbrev  0x0000000000000b68      0x17d sheet.o
 .debug_abbrev  0x0000000000000ce5      0x197 timer.o
 .debug_abbrev  0x0000000000000e7c      0x1c6 mtask.o
 .debug_abbrev  0x0000000000001042      0x226 console.o
 .debug_abbrev  0x0000000000001268      0x130 window.o
 .debug_abbrev  0x0000000000001398      0x17f file.o

.debug_aranges  0x0000000000000000      0x1f8
 .debug_aranges
                0x0000000000000000       0x20 bootpack.o
 .debug_aranges
                0x0000000000000020       0x18 hankaku.o
 .debug_aranges
                0x0000000000000038       0x20 fifo.o
 .debug_aranges
                0x0000000000000058       0x20 int.o
 .debug_aranges
                0x0000000000000078       0x20 keyboard.o
 .debug_aranges
                0x0000000000000098       0x20 mouse.o
 .debug_aranges
                0x00000000000000b8       0x20 memory.o
 .debug_aranges
                0x00000000000000d8       0x20 mysprintf.o
 .debug_aranges
                0x00000000000000f8       0x20 graphic.o
 .debug_aranges
                0x0000000000000118       0x20 dsctbl.o
 .debug_aranges
                0x0000000000000138       0x20 sheet.o
 .debug_aranges
                0x0000000000000158       0x20 timer.o
 .debug_aranges
                0x0000000000000178       0x20 mtask.o
 .debug_aranges
                0x0000000000000198       0x20 console.o
 .debug_aranges
                0x00000000000001b8       0x20 window.o
 .debug_aranges
                0x00000000000001d8       0x20 file.o

.debug_line     0x0000000000000000     0x2aae
 .debug_line    0x0000000000000000      0x63c bootpack.o
 .debug_line    0x000000000000063c       0x2a hankaku.o
 .debug_line    0x0000000000000666       0xec fifo.o
 .debug_line    0x0000000000000752      0x10a int.o
 .debug_line    0x000000000000085c       0x7a keyboard.o
 .debug_line    0x00000000000008d6       0xea mouse.o
 .debug_line    0x00000000000009c0      0x24f memory.o
 .debug_line    0x0000000000000c0f      0x1e6 mysprintf.o
 .debug_line    0x0000000000000df5      0x3de graphic.o
 .debug_line    0x00000000000011d3       0xf3 dsctbl.o
 .debug_line    0x00000000000012c6      0x540 sheet.o
 .debug_line    0x0000000000001806      0x1fc timer.o
 .debug_line    0x0000000000001a02      0x310 mtask.o
 .debug_line    0x0000000000001d12      0x987 console.o
 .debug_line    0x0000000000002699      0x1ce window.o
 .debug_line    0x0000000000002867      0x247 file.o

.debug_str      0x0000000000000000     0x2f3b
 .debug_str     0x0000000000000000      0x592 bootpack.o
 .debug_str     0x0000000000000592       0xd8 hankaku.o
 .debug_str     0x000000000000066a      0x24e fifo.o
 .debug_str     0x00000000000008b8      0x43e int.o
 .debug_str     0x0000000000000cf6      0x267 keyboard.o
 .debug_str     0x0000000000000f5d      0x276 mouse.o
 .debug_str     0x00000000000011d3      0x2be memory.o
 .debug_str     0x0000000000001491      0x146 mysprintf.o
 .debug_str     0x00000000000015d7      0x2cc graphic.o
 .debug_str     0x00000000000018a3      0x2e2 dsctbl.o
 .debug_str     0x0000000000001b85      0x2e2 sheet.o
 .debug_str     0x0000000000001e67      0x282 timer.o
 .debug_str     0x00000000000020e9      0x36d mtask.o
 .debug_str     0x0000000000002456      0x5d7 console.o
 .debug_str     0x0000000000002a2d      0x296 window.o
 .debug_str     0x0000000000002cc3      0x278 file.o

.comment        0x0000000000000000      0x2b0
 .comment       0x0000000000000000       0x2b bootpack.o
 .comment       0x000000000000002b       0x2b hankaku.o
 .comment       0x0000000000000056       0x2b fifo.o
 .comment       0x0000000000000081       0x2b int.o
 .comment       0x00000000000000ac       0x2b keyboard.o
 .comment       0x00000000000000d7       0x2b mouse.o
 .comment       0x0000000000000102       0x2b memory.o
 .comment       0x000000000000012d       0x2b mysprintf.o
 .comment       0x0000000000000158       0x2b graphic.o
 .comment       0x0000000000000183       0x2b dsctbl.o
 .comment       0x00000000000001ae       0x2b sheet.o
 .comment       0x00000000000001d9       0x2b timer.o
 .comment       0x0000000000000204       0x2b mtask.o
 .comment       0x000000000000022f       0x2b console.o
 .comment       0x000000000000025a       0x2b window.o
 .comment       0x0000000000000285       0x2b file.o

.note.GNU-stack
                0x0000000000000000        0x0
 .note.GNU-stack
                0x0000000000000000        0x0 bootpack.o
 .note.GNU-stack
                0x0000000000000000        0x0 hankaku.o
 .note.GNU-stack
                0x0000000000000000        0x0 fifo.o
 .note.GNU-stack
                0x0000000000000000        0x0 int.o
 .note.GNU-stack
                0x0000000000000000        0x0 keyboard.o
 .note.GNU-stack
                0x0000000000000000        0x0 mouse.o
 .note.GNU-stack
                0x0000000000000000        0x0 memory.o
 .note.GNU-stack
                0x0000000000000000        0x0 mysprintf.o
 .note.GNU-stack
                0x0000000000000000        0x0 graphic.o
 .note.GNU-stack
                0x0000000000000000        0x0 dsctbl.o
 .note.GNU-stack
                0x0000000000000000        0x0 sheet.o
 .note.GNU-stack
                0x0000000000000000        0x0 timer.o
 .note.GNU-stack
                0x0000000000000000        0x0 mtask.o
 .note.GNU-stack
                0x0000000000000000        0x0 console.o
 .note.GNU-stack
                0x0000000000000000        0x0 window.o
 .note.GNU-stack
                0x0000000000000000        0x0 file.o

.bss            0x0000000000311440     0x2744 load address 0x0000000000006be0
 COMMON         0x0000000000311440        0x8 keyboard.o
                0x0000000000311440                keyfifo
                0x0000000000311444                keydata0
 COMMON         0x0000000000311448        0x8 mouse.o
                0x0000000000311448                mousedata0
                0x000000000031144c                mousefifo
 *fill*         0x0000000000311450       0x10 
 COMMON         0x0000000000311460     0x271c timer.o
                0x0000000000311460                timerctl
 COMMON         0x0000000000313b7c        0x8 mtask.o
                0x0000000000313b7c                taskctl
                0x0000000000313b80                task_timer
